; Function Attrs: nounwind uwtable
define ptr @l_Lean_Compiler_LCNF_Simp_CtorInfo_getNumParams___boxed(ptr noundef %0) local_unnamed_addr #1 {
  %2 = ptrtoint ptr %0 to i64
  %3 = and i64 %2, 1
  %.not.i.i = icmp eq i64 %3, 0
  br i1 %.not.i.i, label %7, label %4

4:                                                ; preds = %1
  %5 = lshr i64 %2, 1
  %6 = trunc i64 %5 to i32
  br label %lean_obj_tag.exit.i

7:                                                ; preds = %1
  %8 = getelementptr i8, ptr %0, i64 4
  %.val.i.i = load i32, ptr %8, align 4
  %9 = lshr i32 %.val.i.i, 24
  br label %lean_obj_tag.exit.i

lean_obj_tag.exit.i:                              ; preds = %7, %4
  %.0.i.i = phi i32 [ %6, %4 ], [ %9, %7 ]
  %10 = icmp eq i32 %.0.i.i, 0
  br i1 %10, label %11, label %l_Lean_Compiler_LCNF_Simp_CtorInfo_getNumParams.exit

11:                                               ; preds = %lean_obj_tag.exit.i
  %12 = getelementptr inbounds nuw i8, ptr %0, i64 8
  %13 = load ptr, ptr %12, align 8, !tbaa !9
  %14 = getelementptr inbounds nuw i8, ptr %13, i64 32
  %15 = load ptr, ptr %14, align 8, !tbaa !9
  %16 = ptrtoint ptr %15 to i64
  %17 = and i64 %16, 1
  %.not.i3 = icmp eq i64 %17, 0
  br i1 %.not.i3, label %18, label %l_Lean_Compiler_LCNF_Simp_CtorInfo_getNumParams.exit

18:                                               ; preds = %11
  %.val.i7.i = load i32, ptr %15, align 4, !tbaa !4
  %19 = icmp sgt i32 %.val.i7.i, 0
  br i1 %19, label %20, label %22, !prof !11

20:                                               ; preds = %18
  %21 = add nuw i32 %.val.i7.i, 1
  store i32 %21, ptr %15, align 4, !tbaa !4
  br label %l_Lean_Compiler_LCNF_Simp_CtorInfo_getNumParams.exit

22:                                               ; preds = %18
  %.not.i8.i = icmp eq i32 %.val.i7.i, 0
  br i1 %.not.i8.i, label %l_Lean_Compiler_LCNF_Simp_CtorInfo_getNumParams.exit, label %23

23:                                               ; preds = %22
  tail call void @lean_inc_ref_cold(ptr noundef nonnull %15) #4
  br label %l_Lean_Compiler_LCNF_Simp_CtorInfo_getNumParams.exit

l_Lean_Compiler_LCNF_Simp_CtorInfo_getNumParams.exit: ; preds = %lean_obj_tag.exit.i, %11, %20, %22, %23
  %.0.i = phi ptr [ %15, %23 ], [ %15, %22 ], [ %15, %20 ], [ %15, %11 ], [ inttoptr (i64 1 to ptr), %lean_obj_tag.exit.i ]
  br i1 %.not.i.i, label %24, label %lean_dec.exit

24:                                               ; preds = %l_Lean_Compiler_LCNF_Simp_CtorInfo_getNumParams.exit
  %25 = load i32, ptr %0, align 4, !tbaa !4
  %26 = icmp sgt i32 %25, 1
  br i1 %26, label %27, label %29, !prof !11

27:                                               ; preds = %24
  %28 = add nsw i32 %25, -1
  store i32 %28, ptr %0, align 4, !tbaa !4
  br label %lean_dec.exit

29:                                               ; preds = %24
  %.not.i = icmp eq i32 %25, 0
  br i1 %.not.i, label %lean_dec.exit, label %30

30:                                               ; preds = %29
  tail call void @lean_dec_ref_cold(ptr noundef nonnull %0) #4
  br label %lean_dec.exit

lean_dec.exit:                                    ; preds = %30, %29, %27, %l_Lean_Compiler_LCNF_Simp_CtorInfo_getNumParams.exit
  ret ptr %.0.i
}